target datalayout = "e-m:e-p270:32:32-p271:32:32-p272:64:64-i64:64-i128:128-f80:128-n8:16:32:64-S128"
target triple = "x86_64-pc-linux-gnu"

%struct.anon = type { [3 x double] }
%struct._generic_N_Vector = type { ptr, ptr, ptr }
%struct._N_VectorContent_Serial = type { i64, i32, ptr }

; Function Attrs: nounwind uwtable
define internal i32 @resBS2(double noundef %0, ptr noundef %1, ptr noundef %2, ptr noundef %3, ptr noundef %4, ptr noundef %5, ptr noundef %6, ptr noundef %7, ptr noundef %8) #0 {
  %10 = alloca double, align 8
  %11 = alloca ptr, align 8
  %12 = alloca ptr, align 8
  %13 = alloca ptr, align 8
  %14 = alloca ptr, align 8
  %15 = alloca ptr, align 8
  %16 = alloca ptr, align 8
  %17 = alloca ptr, align 8
  %18 = alloca ptr, align 8
  %19 = alloca ptr, align 8
  %20 = alloca double, align 8
  %21 = alloca double, align 8
  %22 = alloca double, align 8
  %23 = alloca double, align 8
  %24 = alloca double, align 8
  %25 = alloca double, align 8
  %26 = alloca double, align 8
  %27 = alloca double, align 8
  %28 = alloca double, align 8
  %29 = alloca double, align 8
  %30 = alloca double, align 8
  %31 = alloca double, align 8
  %32 = alloca double, align 8
  %33 = alloca double, align 8
  %34 = alloca double, align 8
  %35 = alloca double, align 8
  %36 = alloca double, align 8
  %37 = alloca double, align 8
  %38 = alloca double, align 8
  %39 = alloca double, align 8
  store double %0, ptr %10, align 8, !tbaa !14
  store ptr %1, ptr %11, align 8, !tbaa !16
  store ptr %2, ptr %12, align 8, !tbaa !16
  store ptr %3, ptr %13, align 8, !tbaa !25
  store ptr %4, ptr %14, align 8, !tbaa !25
  store ptr %5, ptr %15, align 8, !tbaa !16
  store ptr %6, ptr %16, align 8, !tbaa !16
  store ptr %7, ptr %17, align 8, !tbaa !16
  store ptr %8, ptr %18, align 8, !tbaa !13
  call void @llvm.lifetime.start.p0(i64 8, ptr %19) #6
  call void @llvm.lifetime.start.p0(i64 8, ptr %20) #6
  call void @llvm.lifetime.start.p0(i64 8, ptr %21) #6
  call void @llvm.lifetime.start.p0(i64 8, ptr %22) #6
  call void @llvm.lifetime.start.p0(i64 8, ptr %23) #6
  call void @llvm.lifetime.start.p0(i64 8, ptr %24) #6
  call void @llvm.lifetime.start.p0(i64 8, ptr %25) #6
  call void @llvm.lifetime.start.p0(i64 8, ptr %26) #6
  call void @llvm.lifetime.start.p0(i64 8, ptr %27) #6
  call void @llvm.lifetime.start.p0(i64 8, ptr %28) #6
  call void @llvm.lifetime.start.p0(i64 8, ptr %29) #6
  call void @llvm.lifetime.start.p0(i64 8, ptr %30) #6
  call void @llvm.lifetime.start.p0(i64 8, ptr %31) #6
  call void @llvm.lifetime.start.p0(i64 8, ptr %32) #6
  call void @llvm.lifetime.start.p0(i64 8, ptr %33) #6
  call void @llvm.lifetime.start.p0(i64 8, ptr %34) #6
  call void @llvm.lifetime.start.p0(i64 8, ptr %35) #6
  call void @llvm.lifetime.start.p0(i64 8, ptr %36) #6
  call void @llvm.lifetime.start.p0(i64 8, ptr %37) #6
  call void @llvm.lifetime.start.p0(i64 8, ptr %38) #6
  call void @llvm.lifetime.start.p0(i64 8, ptr %39) #6
  %40 = load ptr, ptr %18, align 8, !tbaa !13
  store ptr %40, ptr %19, align 8, !tbaa !13
  %41 = load ptr, ptr %19, align 8, !tbaa !13
  %42 = getelementptr inbounds nuw %struct.anon, ptr %41, i32 0, i32 0
  %43 = getelementptr inbounds [3 x double], ptr %42, i64 0, i64 0
  %44 = load double, ptr %43, align 8, !tbaa !14
  store double %44, ptr %23, align 8, !tbaa !14
  %45 = load ptr, ptr %19, align 8, !tbaa !13
  %46 = getelementptr inbounds nuw %struct.anon, ptr %45, i32 0, i32 0
  %47 = getelementptr inbounds [3 x double], ptr %46, i64 0, i64 1
  %48 = load double, ptr %47, align 8, !tbaa !14
  store double %48, ptr %24, align 8, !tbaa !14
  %49 = load ptr, ptr %19, align 8, !tbaa !13
  %50 = getelementptr inbounds nuw %struct.anon, ptr %49, i32 0, i32 0
  %51 = getelementptr inbounds [3 x double], ptr %50, i64 0, i64 2
  %52 = load double, ptr %51, align 8, !tbaa !14
  store double %52, ptr %25, align 8, !tbaa !14
  %53 = load ptr, ptr %11, align 8, !tbaa !16
  %54 = getelementptr inbounds nuw %struct._generic_N_Vector, ptr %53, i32 0, i32 0
  %55 = load ptr, ptr %54, align 8, !tbaa !18
  %56 = getelementptr inbounds nuw %struct._N_VectorContent_Serial, ptr %55, i32 0, i32 2
  %57 = load ptr, ptr %56, align 8, !tbaa !21
  %58 = getelementptr inbounds double, ptr %57, i64 0
  %59 = load double, ptr %58, align 8, !tbaa !14
  store double %59, ptr %20, align 8, !tbaa !14
  %60 = load ptr, ptr %11, align 8, !tbaa !16
  %61 = getelementptr inbounds nuw %struct._generic_N_Vector, ptr %60, i32 0, i32 0
  %62 = load ptr, ptr %61, align 8, !tbaa !18
  %63 = getelementptr inbounds nuw %struct._N_VectorContent_Serial, ptr %62, i32 0, i32 2
  %64 = load ptr, ptr %63, align 8, !tbaa !21
  %65 = getelementptr inbounds double, ptr %64, i64 1
  %66 = load double, ptr %65, align 8, !tbaa !14
  store double %66, ptr %21, align 8, !tbaa !14
  %67 = load ptr, ptr %11, align 8, !tbaa !16
  %68 = getelementptr inbounds nuw %struct._generic_N_Vector, ptr %67, i32 0, i32 0
  %69 = load ptr, ptr %68, align 8, !tbaa !18
  %70 = getelementptr inbounds nuw %struct._N_VectorContent_Serial, ptr %69, i32 0, i32 2
  %71 = load ptr, ptr %70, align 8, !tbaa !21
  %72 = getelementptr inbounds double, ptr %71, i64 2
  %73 = load double, ptr %72, align 8, !tbaa !14
  store double %73, ptr %22, align 8, !tbaa !14
  %74 = load ptr, ptr %15, align 8, !tbaa !16
  %75 = getelementptr inbounds nuw %struct._generic_N_Vector, ptr %74, i32 0, i32 0
  %76 = load ptr, ptr %75, align 8, !tbaa !18
  %77 = getelementptr inbounds nuw %struct._N_VectorContent_Serial, ptr %76, i32 0, i32 2
  %78 = load ptr, ptr %77, align 8, !tbaa !21
  %79 = getelementptr inbounds double, ptr %78, i64 0
  %80 = load double, ptr %79, align 8, !tbaa !14
  store double %80, ptr %26, align 8, !tbaa !14
  %81 = load ptr, ptr %15, align 8, !tbaa !16
  %82 = getelementptr inbounds nuw %struct._generic_N_Vector, ptr %81, i32 0, i32 0
  %83 = load ptr, ptr %82, align 8, !tbaa !18
  %84 = getelementptr inbounds nuw %struct._N_VectorContent_Serial, ptr %83, i32 0, i32 2
  %85 = load ptr, ptr %84, align 8, !tbaa !21
  %86 = getelementptr inbounds double, ptr %85, i64 1
  %87 = load double, ptr %86, align 8, !tbaa !14
  store double %87, ptr %27, align 8, !tbaa !14
  %88 = load ptr, ptr %15, align 8, !tbaa !16
  %89 = getelementptr inbounds nuw %struct._generic_N_Vector, ptr %88, i32 0, i32 0
  %90 = load ptr, ptr %89, align 8, !tbaa !18
  %91 = getelementptr inbounds nuw %struct._N_VectorContent_Serial, ptr %90, i32 0, i32 2
  %92 = load ptr, ptr %91, align 8, !tbaa !21
  %93 = getelementptr inbounds double, ptr %92, i64 2
  %94 = load double, ptr %93, align 8, !tbaa !14
  store double %94, ptr %28, align 8, !tbaa !14
  %95 = load ptr, ptr %15, align 8, !tbaa !16
  %96 = getelementptr inbounds nuw %struct._generic_N_Vector, ptr %95, i32 0, i32 0
  %97 = load ptr, ptr %96, align 8, !tbaa !18
  %98 = getelementptr inbounds nuw %struct._N_VectorContent_Serial, ptr %97, i32 0, i32 2
  %99 = load ptr, ptr %98, align 8, !tbaa !21
  %100 = getelementptr inbounds double, ptr %99, i64 3
  %101 = load double, ptr %100, align 8, !tbaa !14
  store double %101, ptr %29, align 8, !tbaa !14
  %102 = load ptr, ptr %15, align 8, !tbaa !16
  %103 = getelementptr inbounds nuw %struct._generic_N_Vector, ptr %102, i32 0, i32 0
  %104 = load ptr, ptr %103, align 8, !tbaa !18
  %105 = getelementptr inbounds nuw %struct._N_VectorContent_Serial, ptr %104, i32 0, i32 2
  %106 = load ptr, ptr %105, align 8, !tbaa !21
  %107 = getelementptr inbounds double, ptr %106, i64 4
  %108 = load double, ptr %107, align 8, !tbaa !14
  store double %108, ptr %30, align 8, !tbaa !14
  %109 = load ptr, ptr %15, align 8, !tbaa !16
  %110 = getelementptr inbounds nuw %struct._generic_N_Vector, ptr %109, i32 0, i32 0
  %111 = load ptr, ptr %110, align 8, !tbaa !18
  %112 = getelementptr inbounds nuw %struct._N_VectorContent_Serial, ptr %111, i32 0, i32 2
  %113 = load ptr, ptr %112, align 8, !tbaa !21
  %114 = getelementptr inbounds double, ptr %113, i64 5
  %115 = load double, ptr %114, align 8, !tbaa !14
  store double %115, ptr %31, align 8, !tbaa !14
  %116 = load ptr, ptr %16, align 8, !tbaa !16
  %117 = getelementptr inbounds nuw %struct._generic_N_Vector, ptr %116, i32 0, i32 0
  %118 = load ptr, ptr %117, align 8, !tbaa !18
  %119 = getelementptr inbounds nuw %struct._N_VectorContent_Serial, ptr %118, i32 0, i32 2
  %120 = load ptr, ptr %119, align 8, !tbaa !21
  %121 = getelementptr inbounds double, ptr %120, i64 0
  %122 = load double, ptr %121, align 8, !tbaa !14
  store double %122, ptr %32, align 8, !tbaa !14
  %123 = load ptr, ptr %16, align 8, !tbaa !16
  %124 = getelementptr inbounds nuw %struct._generic_N_Vector, ptr %123, i32 0, i32 0
  %125 = load ptr, ptr %124, align 8, !tbaa !18
  %126 = getelementptr inbounds nuw %struct._N_VectorContent_Serial, ptr %125, i32 0, i32 2
  %127 = load ptr, ptr %126, align 8, !tbaa !21
  %128 = getelementptr inbounds double, ptr %127, i64 1
  %129 = load double, ptr %128, align 8, !tbaa !14
  store double %129, ptr %33, align 8, !tbaa !14
  %130 = load ptr, ptr %16, align 8, !tbaa !16
  %131 = getelementptr inbounds nuw %struct._generic_N_Vector, ptr %130, i32 0, i32 0
  %132 = load ptr, ptr %131, align 8, !tbaa !18
  %133 = getelementptr inbounds nuw %struct._N_VectorContent_Serial, ptr %132, i32 0, i32 2
  %134 = load ptr, ptr %133, align 8, !tbaa !21
  %135 = getelementptr inbounds double, ptr %134, i64 3
  %136 = load double, ptr %135, align 8, !tbaa !14
  store double %136, ptr %34, align 8, !tbaa !14
  %137 = load ptr, ptr %16, align 8, !tbaa !16
  %138 = getelementptr inbounds nuw %struct._generic_N_Vector, ptr %137, i32 0, i32 0
  %139 = load ptr, ptr %138, align 8, !tbaa !18
  %140 = getelementptr inbounds nuw %struct._N_VectorContent_Serial, ptr %139, i32 0, i32 2
  %141 = load ptr, ptr %140, align 8, !tbaa !21
  %142 = getelementptr inbounds double, ptr %141, i64 4
  %143 = load double, ptr %142, align 8, !tbaa !14
  store double %143, ptr %35, align 8, !tbaa !14
  %144 = load ptr, ptr %13, align 8, !tbaa !25
  %145 = getelementptr inbounds ptr, ptr %144, i64 1
  %146 = load ptr, ptr %145, align 8, !tbaa !16
  %147 = getelementptr inbounds nuw %struct._generic_N_Vector, ptr %146, i32 0, i32 0
  %148 = load ptr, ptr %147, align 8, !tbaa !18
  %149 = getelementptr inbounds nuw %struct._N_VectorContent_Serial, ptr %148, i32 0, i32 2
  %150 = load ptr, ptr %149, align 8, !tbaa !21
  %151 = getelementptr inbounds double, ptr %150, i64 0
  %152 = load double, ptr %151, align 8, !tbaa !14
  store double %152, ptr %36, align 8, !tbaa !14
  %153 = load ptr, ptr %13, align 8, !tbaa !25
  %154 = getelementptr inbounds ptr, ptr %153, i64 1
  %155 = load ptr, ptr %154, align 8, !tbaa !16
  %156 = getelementptr inbounds nuw %struct._generic_N_Vector, ptr %155, i32 0, i32 0
  %157 = load ptr, ptr %156, align 8, !tbaa !18
  %158 = getelementptr inbounds nuw %struct._N_VectorContent_Serial, ptr %157, i32 0, i32 2
  %159 = load ptr, ptr %158, align 8, !tbaa !21
  %160 = getelementptr inbounds double, ptr %159, i64 1
  %161 = load double, ptr %160, align 8, !tbaa !14
  store double %161, ptr %37, align 8, !tbaa !14
  %162 = load ptr, ptr %13, align 8, !tbaa !25
  %163 = getelementptr inbounds ptr, ptr %162, i64 1
  %164 = load ptr, ptr %163, align 8, !tbaa !16
  %165 = getelementptr inbounds nuw %struct._generic_N_Vector, ptr %164, i32 0, i32 0
  %166 = load ptr, ptr %165, align 8, !tbaa !18
  %167 = getelementptr inbounds nuw %struct._N_VectorContent_Serial, ptr %166, i32 0, i32 2
  %168 = load ptr, ptr %167, align 8, !tbaa !21
  %169 = getelementptr inbounds double, ptr %168, i64 2
  %170 = load double, ptr %169, align 8, !tbaa !14
  store double %170, ptr %38, align 8, !tbaa !14
  %171 = load double, ptr %27, align 8, !tbaa !14
  %172 = load double, ptr %26, align 8, !tbaa !14
  %173 = fsub double %171, %172
  store double %173, ptr %39, align 8, !tbaa !14
  %174 = load double, ptr %32, align 8, !tbaa !14
  %175 = load double, ptr %23, align 8, !tbaa !14
  %176 = load double, ptr %39, align 8, !tbaa !14
  %177 = call double @llvm.fmuladd.f64(double %175, double %176, double %174)
  %178 = load double, ptr %28, align 8, !tbaa !14
  %179 = fsub double %177, %178
  %180 = load double, ptr %20, align 8, !tbaa !14
  %181 = fadd double %179, %180
  %182 = load ptr, ptr %17, align 8, !tbaa !16
  %183 = getelementptr inbounds nuw %struct._generic_N_Vector, ptr %182, i32 0, i32 0
  %184 = load ptr, ptr %183, align 8, !tbaa !18
  %185 = getelementptr inbounds nuw %struct._N_VectorContent_Serial, ptr %184, i32 0, i32 2
  %186 = load ptr, ptr %185, align 8, !tbaa !21
  %187 = getelementptr inbounds double, ptr %186, i64 0
  store double %181, ptr %187, align 8, !tbaa !14
  %188 = load double, ptr %33, align 8, !tbaa !14
  %189 = load double, ptr %24, align 8, !tbaa !14
  %190 = load double, ptr %22, align 8, !tbaa !14
  %191 = fmul double %189, %190
  %192 = load double, ptr %39, align 8, !tbaa !14
  %193 = fneg double %191
  %194 = call double @llvm.fmuladd.f64(double %193, double %192, double %188)
  %195 = load double, ptr %25, align 8, !tbaa !14
  %196 = fmul double 2.000000e+00, %195
  %197 = load double, ptr %21, align 8, !tbaa !14
  %198 = fmul double %196, %197
  %199 = load double, ptr %27, align 8, !tbaa !14
  %200 = fneg double %198
  %201 = call double @llvm.fmuladd.f64(double %200, double %199, double %194)
  %202 = load double, ptr %28, align 8, !tbaa !14
  %203 = fsub double %201, %202
  %204 = load double, ptr %21, align 8, !tbaa !14
  %205 = fadd double %203, %204
  %206 = load ptr, ptr %17, align 8, !tbaa !16
  %207 = getelementptr inbounds nuw %struct._generic_N_Vector, ptr %206, i32 0, i32 0
  %208 = load ptr, ptr %207, align 8, !tbaa !18
  %209 = getelementptr inbounds nuw %struct._N_VectorContent_Serial, ptr %208, i32 0, i32 2
  %210 = load ptr, ptr %209, align 8, !tbaa !21
  %211 = getelementptr inbounds double, ptr %210, i64 1
  store double %205, ptr %211, align 8, !tbaa !14
  %212 = load double, ptr %24, align 8, !tbaa !14
  %213 = fneg double %212
  %214 = load double, ptr %21, align 8, !tbaa !14
  %215 = fmul double %213, %214
  %216 = load double, ptr %39, align 8, !tbaa !14
  %217 = load double, ptr %28, align 8, !tbaa !14
  %218 = fneg double %217
  %219 = call double @llvm.fmuladd.f64(double %215, double %216, double %218)
  %220 = load double, ptr %22, align 8, !tbaa !14
  %221 = fadd double %219, %220
  %222 = load ptr, ptr %17, align 8, !tbaa !16
  %223 = getelementptr inbounds nuw %struct._generic_N_Vector, ptr %222, i32 0, i32 0
  %224 = load ptr, ptr %223, align 8, !tbaa !18
  %225 = getelementptr inbounds nuw %struct._N_VectorContent_Serial, ptr %224, i32 0, i32 2
  %226 = load ptr, ptr %225, align 8, !tbaa !21
  %227 = getelementptr inbounds double, ptr %226, i64 2
  store double %221, ptr %227, align 8, !tbaa !14
  %228 = load double, ptr %34, align 8, !tbaa !14
  %229 = load double, ptr %23, align 8, !tbaa !14
  %230 = load double, ptr %29, align 8, !tbaa !14
  %231 = fneg double %230
  %232 = load double, ptr %30, align 8, !tbaa !14
  %233 = fadd double %231, %232
  %234 = call double @llvm.fmuladd.f64(double %229, double %233, double %228)
  %235 = load double, ptr %31, align 8, !tbaa !14
  %236 = fsub double %234, %235
  %237 = load double, ptr %36, align 8, !tbaa !14
  %238 = fadd double %236, %237
  %239 = load ptr, ptr %17, align 8, !tbaa !16
  %240 = getelementptr inbounds nuw %struct._generic_N_Vector, ptr %239, i32 0, i32 0
  %241 = load ptr, ptr %240, align 8, !tbaa !18
  %242 = getelementptr inbounds nuw %struct._N_VectorContent_Serial, ptr %241, i32 0, i32 2
  %243 = load ptr, ptr %242, align 8, !tbaa !21
  %244 = getelementptr inbounds double, ptr %243, i64 3
  store double %238, ptr %244, align 8, !tbaa !14
  %245 = load double, ptr %35, align 8, !tbaa !14
  %246 = load double, ptr %24, align 8, !tbaa !14
  %247 = load double, ptr %22, align 8, !tbaa !14
  %248 = fmul double %246, %247
  %249 = load double, ptr %29, align 8, !tbaa !14
  %250 = call double @llvm.fmuladd.f64(double %248, double %249, double %245)
  %251 = load double, ptr %24, align 8, !tbaa !14
  %252 = load double, ptr %22, align 8, !tbaa !14
  %253 = load double, ptr %25, align 8, !tbaa !14
  %254 = fmul double 2.000000e+00, %253
  %255 = load double, ptr %21, align 8, !tbaa !14
  %256 = fmul double %254, %255
  %257 = call double @llvm.fmuladd.f64(double %251, double %252, double %256)
  %258 = load double, ptr %30, align 8, !tbaa !14
  %259 = fneg double %257
  %260 = call double @llvm.fmuladd.f64(double %259, double %258, double %250)
  %261 = load double, ptr %31, align 8, !tbaa !14
  %262 = fsub double %260, %261
  %263 = load double, ptr %22, align 8, !tbaa !14
  %264 = load double, ptr %24, align 8, !tbaa !14
  %265 = load double, ptr %38, align 8, !tbaa !14
  %266 = call double @llvm.fmuladd.f64(double %264, double %265, double %263)
  %267 = load double, ptr %26, align 8, !tbaa !14
  %268 = call double @llvm.fmuladd.f64(double %266, double %267, double %262)
  %269 = load double, ptr %22, align 8, !tbaa !14
  %270 = load double, ptr %25, align 8, !tbaa !14
  %271 = fmul double 2.000000e+00, %270
  %272 = load double, ptr %37, align 8, !tbaa !14
  %273 = call double @llvm.fmuladd.f64(double %271, double %272, double %269)
  %274 = load double, ptr %24, align 8, !tbaa !14
  %275 = load double, ptr %38, align 8, !tbaa !14
  %276 = call double @llvm.fmuladd.f64(double %274, double %275, double %273)
  %277 = load double, ptr %27, align 8, !tbaa !14
  %278 = fneg double %276
  %279 = call double @llvm.fmuladd.f64(double %278, double %277, double %268)
  %280 = load double, ptr %37, align 8, !tbaa !14
  %281 = fadd double %279, %280
  %282 = load ptr, ptr %17, align 8, !tbaa !16
  %283 = getelementptr inbounds nuw %struct._generic_N_Vector, ptr %282, i32 0, i32 0
  %284 = load ptr, ptr %283, align 8, !tbaa !18
  %285 = getelementptr inbounds nuw %struct._N_VectorContent_Serial, ptr %284, i32 0, i32 2
  %286 = load ptr, ptr %285, align 8, !tbaa !21
  %287 = getelementptr inbounds double, ptr %286, i64 4
  store double %281, ptr %287, align 8, !tbaa !14
  %288 = load double, ptr %24, align 8, !tbaa !14
  %289 = load double, ptr %21, align 8, !tbaa !14
  %290 = fmul double %288, %289
  %291 = load double, ptr %29, align 8, !tbaa !14
  %292 = load double, ptr %30, align 8, !tbaa !14
  %293 = fsub double %291, %292
  %294 = load double, ptr %31, align 8, !tbaa !14
  %295 = fneg double %294
  %296 = call double @llvm.fmuladd.f64(double %290, double %293, double %295)
  %297 = load double, ptr %21, align 8, !tbaa !14
  %298 = load double, ptr %24, align 8, !tbaa !14
  %299 = load double, ptr %37, align 8, !tbaa !14
  %300 = call double @llvm.fmuladd.f64(double %298, double %299, double %297)
  %301 = load double, ptr %39, align 8, !tbaa !14
  %302 = fneg double %300
  %303 = call double @llvm.fmuladd.f64(double %302, double %301, double %296)
  %304 = load double, ptr %38, align 8, !tbaa !14
  %305 = fadd double %303, %304
  %306 = load ptr, ptr %17, align 8, !tbaa !16
  %307 = getelementptr inbounds nuw %struct._generic_N_Vector, ptr %306, i32 0, i32 0
  %308 = load ptr, ptr %307, align 8, !tbaa !18
  %309 = getelementptr inbounds nuw %struct._N_VectorContent_Serial, ptr %308, i32 0, i32 2
  %310 = load ptr, ptr %309, align 8, !tbaa !21
  %311 = getelementptr inbounds double, ptr %310, i64 5
  store double %305, ptr %311, align 8, !tbaa !14
  call void @llvm.lifetime.end.p0(i64 8, ptr %39) #6
  call void @llvm.lifetime.end.p0(i64 8, ptr %38) #6
  call void @llvm.lifetime.end.p0(i64 8, ptr %37) #6
  call void @llvm.lifetime.end.p0(i64 8, ptr %36) #6
  call void @llvm.lifetime.end.p0(i64 8, ptr %35) #6
  call void @llvm.lifetime.end.p0(i64 8, ptr %34) #6
  call void @llvm.lifetime.end.p0(i64 8, ptr %33) #6
  call void @llvm.lifetime.end.p0(i64 8, ptr %32) #6
  call void @llvm.lifetime.end.p0(i64 8, ptr %31) #6
  call void @llvm.lifetime.end.p0(i64 8, ptr %30) #6
  call void @llvm.lifetime.end.p0(i64 8, ptr %29) #6
  call void @llvm.lifetime.end.p0(i64 8, ptr %28) #6
  call void @llvm.lifetime.end.p0(i64 8, ptr %27) #6
  call void @llvm.lifetime.end.p0(i64 8, ptr %26) #6
  call void @llvm.lifetime.end.p0(i64 8, ptr %25) #6
  call void @llvm.lifetime.end.p0(i64 8, ptr %24) #6
  call void @llvm.lifetime.end.p0(i64 8, ptr %23) #6
  call void @llvm.lifetime.end.p0(i64 8, ptr %22) #6
  call void @llvm.lifetime.end.p0(i64 8, ptr %21) #6
  call void @llvm.lifetime.end.p0(i64 8, ptr %20) #6
  call void @llvm.lifetime.end.p0(i64 8, ptr %19) #6
  ret i32 0
}