; Function Attrs: mustprogress nofree norecurse nosync nounwind willreturn memory(readwrite, inaccessiblemem: none) uwtable
define internal noundef i32 @resBS2(double %0, ptr noundef readonly captures(none) %1, ptr readnone captures(none) %2, ptr noundef readonly captures(none) %3, ptr readnone captures(none) %4, ptr noundef readonly captures(none) %5, ptr noundef readonly captures(none) %6, ptr noundef readonly captures(none) %7, ptr noundef readonly captures(none) %8) #5 {
  %10 = load double, ptr %8, align 8, !tbaa !9
  %11 = getelementptr inbounds nuw i8, ptr %8, i64 8
  %12 = load double, ptr %11, align 8, !tbaa !9
  %13 = getelementptr inbounds nuw i8, ptr %8, i64 16
  %14 = load double, ptr %13, align 8, !tbaa !9
  %15 = load ptr, ptr %1, align 8, !tbaa !11
  %16 = getelementptr inbounds nuw i8, ptr %15, i64 16
  %17 = load ptr, ptr %16, align 8, !tbaa !14
  %18 = load double, ptr %17, align 8, !tbaa !9
  %19 = getelementptr inbounds nuw i8, ptr %17, i64 8
  %20 = load double, ptr %19, align 8, !tbaa !9
  %21 = getelementptr inbounds nuw i8, ptr %17, i64 16
  %22 = load double, ptr %21, align 8, !tbaa !9
  %23 = load ptr, ptr %5, align 8, !tbaa !11
  %24 = getelementptr inbounds nuw i8, ptr %23, i64 16
  %25 = load ptr, ptr %24, align 8, !tbaa !14
  %26 = load double, ptr %25, align 8, !tbaa !9
  %27 = getelementptr inbounds nuw i8, ptr %25, i64 8
  %28 = load double, ptr %27, align 8, !tbaa !9
  %29 = getelementptr inbounds nuw i8, ptr %25, i64 16
  %30 = load double, ptr %29, align 8, !tbaa !9
  %31 = getelementptr inbounds nuw i8, ptr %25, i64 24
  %32 = load double, ptr %31, align 8, !tbaa !9
  %33 = getelementptr inbounds nuw i8, ptr %25, i64 32
  %34 = load double, ptr %33, align 8, !tbaa !9
  %35 = getelementptr inbounds nuw i8, ptr %25, i64 40
  %36 = load double, ptr %35, align 8, !tbaa !9
  %37 = load ptr, ptr %6, align 8, !tbaa !11
  %38 = getelementptr inbounds nuw i8, ptr %37, i64 16
  %39 = load ptr, ptr %38, align 8, !tbaa !14
  %40 = load double, ptr %39, align 8, !tbaa !9
  %41 = getelementptr inbounds nuw i8, ptr %39, i64 8
  %42 = load double, ptr %41, align 8, !tbaa !9
  %43 = getelementptr inbounds nuw i8, ptr %39, i64 24
  %44 = load double, ptr %43, align 8, !tbaa !9
  %45 = getelementptr inbounds nuw i8, ptr %39, i64 32
  %46 = load double, ptr %45, align 8, !tbaa !9
  %47 = getelementptr inbounds nuw i8, ptr %3, i64 8
  %48 = load ptr, ptr %47, align 8, !tbaa !19
  %49 = load ptr, ptr %48, align 8, !tbaa !11
  %50 = getelementptr inbounds nuw i8, ptr %49, i64 16
  %51 = load ptr, ptr %50, align 8, !tbaa !14
  %52 = load double, ptr %51, align 8, !tbaa !9
  %53 = getelementptr inbounds nuw i8, ptr %51, i64 8
  %54 = load double, ptr %53, align 8, !tbaa !9
  %55 = getelementptr inbounds nuw i8, ptr %51, i64 16
  %56 = load double, ptr %55, align 8, !tbaa !9
  %57 = fsub double %28, %26
  %58 = tail call double @llvm.fmuladd.f64(double %10, double %57, double %40)
  %59 = fsub double %58, %30
  %60 = fadd double %18, %59
  %61 = load ptr, ptr %7, align 8, !tbaa !11
  %62 = getelementptr inbounds nuw i8, ptr %61, i64 16
  %63 = load ptr, ptr %62, align 8, !tbaa !14
  store double %60, ptr %63, align 8, !tbaa !9
  %64 = fmul double %12, %22
  %65 = fneg double %64
  %66 = tail call double @llvm.fmuladd.f64(double %65, double %57, double %42)
  %67 = fmul double %14, 2.000000e+00
  %68 = fmul double %67, %20
  %69 = fneg double %68
  %70 = tail call double @llvm.fmuladd.f64(double %69, double %28, double %66)
  %71 = fsub double %70, %30
  %72 = fadd double %20, %71
  %73 = getelementptr inbounds nuw i8, ptr %63, i64 8
  store double %72, ptr %73, align 8, !tbaa !9
  %74 = fneg double %12
  %75 = fmul double %20, %74
  %76 = fneg double %30
  %77 = tail call double @llvm.fmuladd.f64(double %75, double %57, double %76)
  %78 = fadd double %22, %77
  %79 = getelementptr inbounds nuw i8, ptr %63, i64 16
  store double %78, ptr %79, align 8, !tbaa !9
  %80 = fsub double %34, %32
  %81 = tail call double @llvm.fmuladd.f64(double %10, double %80, double %44)
  %82 = fsub double %81, %36
  %83 = fadd double %82, %52
  %84 = getelementptr inbounds nuw i8, ptr %63, i64 24
  store double %83, ptr %84, align 8, !tbaa !9
  %85 = tail call double @llvm.fmuladd.f64(double %64, double %32, double %46)
  %86 = tail call double @llvm.fmuladd.f64(double %12, double %22, double %68)
  %87 = fneg double %86
  %88 = tail call double @llvm.fmuladd.f64(double %87, double %34, double %85)
  %89 = fsub double %88, %36
  %90 = tail call double @llvm.fmuladd.f64(double %12, double %56, double %22)
  %91 = tail call double @llvm.fmuladd.f64(double %90, double %26, double %89)
  %92 = tail call double @llvm.fmuladd.f64(double %67, double %54, double %22)
  %93 = tail call double @llvm.fmuladd.f64(double %12, double %56, double %92)
  %94 = fneg double %93
  %95 = tail call double @llvm.fmuladd.f64(double %94, double %28, double %91)
  %96 = fadd double %54, %95
  %97 = getelementptr inbounds nuw i8, ptr %63, i64 32
  store double %96, ptr %97, align 8, !tbaa !9
  %98 = fmul double %12, %20
  %99 = fsub double %32, %34
  %100 = fneg double %36
  %101 = tail call double @llvm.fmuladd.f64(double %98, double %99, double %100)
  %102 = tail call double @llvm.fmuladd.f64(double %12, double %54, double %20)
  %103 = fneg double %102
  %104 = tail call double @llvm.fmuladd.f64(double %103, double %57, double %101)
  %105 = fadd double %56, %104
  %106 = getelementptr inbounds nuw i8, ptr %63, i64 40
  store double %105, ptr %106, align 8, !tbaa !9
  ret i32 0
}